; ModuleID = 'source-C-CXX/12/1362.c'
source_filename = "source-C-CXX/12/1362.c"
target datalayout = "e-m:e-p270:32:32-p271:32:32-p272:64:64-i64:64-f80:128-n8:16:32:64-S128"
target triple = "x86_64-pc-linux-gnu"

@.str = private unnamed_addr constant [3 x i8] c"%d\00", align 1

; Function Attrs: nofree nounwind sspstrong uwtable
define dso_local i32 @main() local_unnamed_addr #0 {
  %1 = alloca [20000 x i32], align 16
  %2 = alloca i32, align 4
  %3 = bitcast [20000 x i32]* %1 to i8*
  call void @llvm.lifetime.start.p0i8(i64 80000, i8* nonnull %3) #4
  %4 = bitcast i32* %2 to i8*
  call void @llvm.lifetime.start.p0i8(i64 4, i8* nonnull %4) #4
  %5 = call i32 (i8*, ...) @__isoc99_scanf(i8* getelementptr inbounds ([3 x i8], [3 x i8]* @.str, i64 0, i64 0), i32* nonnull %2)
  %6 = load i32, i32* %2, align 4, !tbaa !5
  %7 = icmp sgt i32 %6, 0
  br i1 %7, label %10, label %144

8:                                                ; preds = %10
  %9 = icmp sgt i32 %15, 0
  br i1 %9, label %32, label %144

10:                                               ; preds = %0, %10
  %11 = phi i64 [ %14, %10 ], [ 0, %0 ]
  %12 = getelementptr inbounds [20000 x i32], [20000 x i32]* %1, i64 0, i64 %11
  %13 = call i32 (i8*, ...) @__isoc99_scanf(i8* getelementptr inbounds ([3 x i8], [3 x i8]* @.str, i64 0, i64 0), i32* nonnull %12)
  %14 = add nuw nsw i64 %11, 1
  %15 = load i32, i32* %2, align 4, !tbaa !5
  %16 = sext i32 %15 to i64
  %17 = icmp slt i64 %14, %16
  br i1 %17, label %10, label %8, !llvm.loop !9

18:                                               ; preds = %128
  %19 = sext i32 %129 to i64
  br label %20

20:                                               ; preds = %18, %32
  %21 = phi i64 [ %19, %18 ], [ %38, %32 ]
  %22 = phi i32 [ %129, %18 ], [ %33, %32 ]
  %23 = icmp slt i64 %37, %21
  br i1 %23, label %32, label %24, !llvm.loop !11

24:                                               ; preds = %20
  %25 = icmp sgt i32 %22, 0
  br i1 %25, label %26, label %144

26:                                               ; preds = %24
  %27 = getelementptr inbounds [20000 x i32], [20000 x i32]* %1, i64 0, i64 0
  %28 = load i32, i32* %27, align 16, !tbaa !5
  %29 = call i32 (i8*, ...) @printf(i8* nonnull dereferenceable(1) getelementptr inbounds ([3 x i8], [3 x i8]* @.str, i64 0, i64 0), i32 %28)
  %30 = load i32, i32* %2, align 4, !tbaa !5
  %31 = icmp sgt i32 %30, 1
  br i1 %31, label %134, label %144

32:                                               ; preds = %8, %20
  %33 = phi i32 [ %22, %20 ], [ %15, %8 ]
  %34 = phi i64 [ %37, %20 ], [ 0, %8 ]
  %35 = getelementptr inbounds [20000 x i32], [20000 x i32]* %1, i64 0, i64 %34
  %36 = load i32, i32* %35, align 4, !tbaa !5
  %37 = add nuw nsw i64 %34, 1
  %38 = sext i32 %33 to i64
  %39 = icmp slt i64 %37, %38
  br i1 %39, label %40, label %20

40:                                               ; preds = %32
  %41 = trunc i64 %37 to i32
  br label %42

42:                                               ; preds = %40, %128
  %43 = phi i32 [ %129, %128 ], [ %33, %40 ]
  %44 = phi i32 [ %130, %128 ], [ %33, %40 ]
  %45 = phi i32 [ %132, %128 ], [ %41, %40 ]
  %46 = sext i32 %45 to i64
  %47 = getelementptr inbounds [20000 x i32], [20000 x i32]* %1, i64 0, i64 %46
  %48 = load i32, i32* %47, align 4, !tbaa !5
  %49 = icmp eq i32 %48, %36
  br i1 %49, label %50, label %128

50:                                               ; preds = %42
  %51 = icmp slt i32 %45, %44
  br i1 %51, label %52, label %125

52:                                               ; preds = %50
  %53 = sext i32 %44 to i64
  %54 = sext i32 %44 to i64
  %55 = sub nsw i64 %54, %46
  %56 = icmp ult i64 %55, 8
  br i1 %56, label %116, label %57

57:                                               ; preds = %52
  %58 = and i64 %55, -8
  %59 = add nsw i64 %58, %46
  %60 = add nsw i64 %58, -8
  %61 = lshr exact i64 %60, 3
  %62 = add nuw nsw i64 %61, 1
  %63 = and i64 %62, 1
  %64 = icmp eq i64 %60, 0
  br i1 %64, label %98, label %65

65:                                               ; preds = %57
  %66 = and i64 %62, 4611686018427387902
  br label %67

67:                                               ; preds = %67, %65
  %68 = phi i64 [ 0, %65 ], [ %95, %67 ]
  %69 = phi i64 [ %66, %65 ], [ %96, %67 ]
  %70 = add i64 %68, %46
  %71 = add nsw i64 %70, 1
  %72 = getelementptr inbounds [20000 x i32], [20000 x i32]* %1, i64 0, i64 %71
  %73 = bitcast i32* %72 to <4 x i32>*
  %74 = load <4 x i32>, <4 x i32>* %73, align 4, !tbaa !5
  %75 = getelementptr inbounds i32, i32* %72, i64 4
  %76 = bitcast i32* %75 to <4 x i32>*
  %77 = load <4 x i32>, <4 x i32>* %76, align 4, !tbaa !5
  %78 = getelementptr inbounds [20000 x i32], [20000 x i32]* %1, i64 0, i64 %70
  %79 = bitcast i32* %78 to <4 x i32>*
  store <4 x i32> %74, <4 x i32>* %79, align 4, !tbaa !5
  %80 = getelementptr inbounds i32, i32* %78, i64 4
  %81 = bitcast i32* %80 to <4 x i32>*
  store <4 x i32> %77, <4 x i32>* %81, align 4, !tbaa !5
  %82 = or i64 %68, 8
  %83 = add i64 %82, %46
  %84 = add nsw i64 %83, 1
  %85 = getelementptr inbounds [20000 x i32], [20000 x i32]* %1, i64 0, i64 %84
  %86 = bitcast i32* %85 to <4 x i32>*
  %87 = load <4 x i32>, <4 x i32>* %86, align 4, !tbaa !5
  %88 = getelementptr inbounds i32, i32* %85, i64 4
  %89 = bitcast i32* %88 to <4 x i32>*
  %90 = load <4 x i32>, <4 x i32>* %89, align 4, !tbaa !5
  %91 = getelementptr inbounds [20000 x i32], [20000 x i32]* %1, i64 0, i64 %83
  %92 = bitcast i32* %91 to <4 x i32>*
  store <4 x i32> %87, <4 x i32>* %92, align 4, !tbaa !5
  %93 = getelementptr inbounds i32, i32* %91, i64 4
  %94 = bitcast i32* %93 to <4 x i32>*
  store <4 x i32> %90, <4 x i32>* %94, align 4, !tbaa !5
  %95 = add nuw i64 %68, 16
  %96 = add i64 %69, -2
  %97 = icmp eq i64 %96, 0
  br i1 %97, label %98, label %67, !llvm.loop !12

98:                                               ; preds = %67, %57
  %99 = phi i64 [ 0, %57 ], [ %95, %67 ]
  %100 = icmp eq i64 %63, 0
  br i1 %100, label %114, label %101

101:                                              ; preds = %98
  %102 = add i64 %99, %46
  %103 = add nsw i64 %102, 1
  %104 = getelementptr inbounds [20000 x i32], [20000 x i32]* %1, i64 0, i64 %103
  %105 = bitcast i32* %104 to <4 x i32>*
  %106 = load <4 x i32>, <4 x i32>* %105, align 4, !tbaa !5
  %107 = getelementptr inbounds i32, i32* %104, i64 4
  %108 = bitcast i32* %107 to <4 x i32>*
  %109 = load <4 x i32>, <4 x i32>* %108, align 4, !tbaa !5
  %110 = getelementptr inbounds [20000 x i32], [20000 x i32]* %1, i64 0, i64 %102
  %111 = bitcast i32* %110 to <4 x i32>*
  store <4 x i32> %106, <4 x i32>* %111, align 4, !tbaa !5
  %112 = getelementptr inbounds i32, i32* %110, i64 4
  %113 = bitcast i32* %112 to <4 x i32>*
  store <4 x i32> %109, <4 x i32>* %113, align 4, !tbaa !5
  br label %114

114:                                              ; preds = %98, %101
  %115 = icmp eq i64 %55, %58
  br i1 %115, label %125, label %116

116:                                              ; preds = %52, %114
  %117 = phi i64 [ %46, %52 ], [ %59, %114 ]
  br label %118

118:                                              ; preds = %116, %118
  %119 = phi i64 [ %120, %118 ], [ %117, %116 ]
  %120 = add nsw i64 %119, 1
  %121 = getelementptr inbounds [20000 x i32], [20000 x i32]* %1, i64 0, i64 %120
  %122 = load i32, i32* %121, align 4, !tbaa !5
  %123 = getelementptr inbounds [20000 x i32], [20000 x i32]* %1, i64 0, i64 %119
  store i32 %122, i32* %123, align 4, !tbaa !5
  %124 = icmp eq i64 %120, %53
  br i1 %124, label %125, label %118, !llvm.loop !14

125:                                              ; preds = %118, %114, %50
  %126 = add nsw i32 %44, -1
  store i32 %126, i32* %2, align 4, !tbaa !5
  %127 = add nsw i32 %45, -1
  br label %128

128:                                              ; preds = %42, %125
  %129 = phi i32 [ %126, %125 ], [ %43, %42 ]
  %130 = phi i32 [ %126, %125 ], [ %44, %42 ]
  %131 = phi i32 [ %127, %125 ], [ %45, %42 ]
  %132 = add nsw i32 %131, 1
  %133 = icmp slt i32 %132, %130
  br i1 %133, label %42, label %18, !llvm.loop !16

134:                                              ; preds = %26, %134
  %135 = phi i64 [ %140, %134 ], [ 1, %26 ]
  %136 = call i32 @putchar(i32 32)
  %137 = getelementptr inbounds [20000 x i32], [20000 x i32]* %1, i64 0, i64 %135
  %138 = load i32, i32* %137, align 4, !tbaa !5
  %139 = call i32 (i8*, ...) @printf(i8* nonnull dereferenceable(1) getelementptr inbounds ([3 x i8], [3 x i8]* @.str, i64 0, i64 0), i32 %138)
  %140 = add nuw nsw i64 %135, 1
  %141 = load i32, i32* %2, align 4, !tbaa !5
  %142 = sext i32 %141 to i64
  %143 = icmp slt i64 %140, %142
  br i1 %143, label %134, label %144, !llvm.loop !17

144:                                              ; preds = %134, %0, %8, %26, %24
  call void @llvm.lifetime.end.p0i8(i64 4, i8* nonnull %4) #4
  call void @llvm.lifetime.end.p0i8(i64 80000, i8* nonnull %3) #4
  ret i32 0
}

; Function Attrs: argmemonly mustprogress nofree nosync nounwind willreturn
declare void @llvm.lifetime.start.p0i8(i64 immarg, i8* nocapture) #1

; Function Attrs: nofree nounwind
declare noundef i32 @__isoc99_scanf(i8* nocapture noundef readonly, ...) local_unnamed_addr #2

; Function Attrs: nofree nounwind
declare noundef i32 @printf(i8* nocapture noundef readonly, ...) local_unnamed_addr #2

; Function Attrs: argmemonly mustprogress nofree nosync nounwind willreturn
declare void @llvm.lifetime.end.p0i8(i64 immarg, i8* nocapture) #1

; Function Attrs: nofree nounwind
declare noundef i32 @putchar(i32 noundef) local_unnamed_addr #3


!llvm.module.flags = !{!0, !1, !2, !3}
!llvm.ident = !{!4}

!0 = !{i32 1, !"wchar_size", i32 4}
!1 = !{i32 7, !"PIC Level", i32 2}
!2 = !{i32 7, !"PIE Level", i32 2}
!3 = !{i32 7, !"uwtable", i32 1}
!4 = !{!"clang version 13.0.0"}
!5 = !{!6, !6, i64 0}
!6 = !{!"int", !7, i64 0}
!7 = !{!"omnipotent char", !8, i64 0}
!8 = !{!"Simple C/C++ TBAA"}
!9 = distinct !{!9, !10}
!10 = !{!"llvm.loop.mustprogress"}
!11 = distinct !{!11, !10}
!12 = distinct !{!12, !10, !13}
!13 = !{!"llvm.loop.isvectorized", i32 1}
!14 = distinct !{!14, !10, !15, !13}
!15 = !{!"llvm.loop.unroll.runtime.disable"}
!16 = distinct !{!16, !10}
!17 = distinct !{!17, !10, !18}
!18 = !{!"llvm.loop.peeled.count", i32 1}
